#include <math.h>
#include <stdio.h>
#include <stdlib.h>
#include <string.h>

int n,a[99];
void main()
{
	int f(int,int,int);
	int i,max;
	scanf("%d",&n);
	for(i=0;i<n;i++)
		scanf("%d",&a[i]);
	max=f(99999,0,0);
	printf("%d\n",max);
}
int f(int hi,int num,int i)
{
	int t1,t2;
	while(a[i]>hi)
		i++;
	if(i>=n)
		return num;
	t1=f(hi,num,i+1);
	t2=f(a[i],num+1,i+1);
	return t1>t2?t1:t2;
}
