; ModuleID = 'source-C-CXX/9/35.c'
source_filename = "source-C-CXX/9/35.c"
target datalayout = "e-m:e-p270:32:32-p271:32:32-p272:64:64-i64:64-f80:128-n8:16:32:64-S128"
target triple = "x86_64-pc-linux-gnu"

@.str = private unnamed_addr constant [3 x i8] c"%d\00", align 1
@n = dso_local global i32 0, align 4
@a = dso_local global [99 x i32] zeroinitializer, align 16
@.str.1 = private unnamed_addr constant [4 x i8] c"%d\0A\00", align 1

; Function Attrs: nofree nounwind sspstrong uwtable
define dso_local void @main() local_unnamed_addr #0 {
  %1 = tail call i32 (i8*, ...) @__isoc99_scanf(i8* getelementptr inbounds ([3 x i8], [3 x i8]* @.str, i64 0, i64 0), i32* nonnull @n)
  %2 = load i32, i32* @n, align 4, !tbaa !5
  %3 = icmp sgt i32 %2, 0
  br i1 %3, label %4, label %12

4:                                                ; preds = %0, %4
  %5 = phi i64 [ %8, %4 ], [ 0, %0 ]
  %6 = getelementptr inbounds [99 x i32], [99 x i32]* @a, i64 0, i64 %5
  %7 = tail call i32 (i8*, ...) @__isoc99_scanf(i8* getelementptr inbounds ([3 x i8], [3 x i8]* @.str, i64 0, i64 0), i32* nonnull %6)
  %8 = add nuw nsw i64 %5, 1
  %9 = load i32, i32* @n, align 4, !tbaa !5
  %10 = sext i32 %9 to i64
  %11 = icmp slt i64 %8, %10
  br i1 %11, label %4, label %12, !llvm.loop !9

12:                                               ; preds = %4, %0
  %13 = tail call i32 @f(i32 99999, i32 0, i32 0)
  %14 = tail call i32 (i8*, ...) @printf(i8* nonnull dereferenceable(1) getelementptr inbounds ([4 x i8], [4 x i8]* @.str.1, i64 0, i64 0), i32 %13)
  ret void
}

; Function Attrs: nofree nounwind
declare noundef i32 @__isoc99_scanf(i8* nocapture noundef readonly, ...) local_unnamed_addr #1

; Function Attrs: nofree nosync nounwind readonly sspstrong uwtable
define dso_local i32 @f(i32 %0, i32 %1, i32 %2) local_unnamed_addr #2 {
  %4 = sext i32 %2 to i64
  br label %5

5:                                                ; preds = %5, %3
  %6 = phi i64 [ %10, %5 ], [ %4, %3 ]
  %7 = getelementptr inbounds [99 x i32], [99 x i32]* @a, i64 0, i64 %6
  %8 = load i32, i32* %7, align 4, !tbaa !5
  %9 = icmp sgt i32 %8, %0
  %10 = add i64 %6, 1
  br i1 %9, label %5, label %11, !llvm.loop !11

11:                                               ; preds = %5
  %12 = trunc i64 %6 to i32
  %13 = load i32, i32* @n, align 4, !tbaa !5
  %14 = icmp sgt i32 %13, %12
  br i1 %14, label %17, label %15

15:                                               ; preds = %11, %17
  %16 = phi i32 [ %23, %17 ], [ %1, %11 ]
  ret i32 %16

17:                                               ; preds = %11
  %18 = add nsw i32 %12, 1
  %19 = tail call i32 @f(i32 %0, i32 %1, i32 %18)
  %20 = add nsw i32 %1, 1
  %21 = tail call i32 @f(i32 %8, i32 %20, i32 %18)
  %22 = icmp sgt i32 %19, %21
  %23 = select i1 %22, i32 %19, i32 %21
  br label %15
}

; Function Attrs: nofree nounwind
declare noundef i32 @printf(i8* nocapture noundef readonly, ...) local_unnamed_addr #1


!llvm.module.flags = !{!0, !1, !2, !3}
!llvm.ident = !{!4}

!0 = !{i32 1, !"wchar_size", i32 4}
!1 = !{i32 7, !"PIC Level", i32 2}
!2 = !{i32 7, !"PIE Level", i32 2}
!3 = !{i32 7, !"uwtable", i32 1}
!4 = !{!"clang version 13.0.0"}
!5 = !{!6, !6, i64 0}
!6 = !{!"int", !7, i64 0}
!7 = !{!"omnipotent char", !8, i64 0}
!8 = !{!"Simple C/C++ TBAA"}
!9 = distinct !{!9, !10}
!10 = !{!"llvm.loop.mustprogress"}
!11 = distinct !{!11, !10}
